target datalayout = "e-m:e-p270:32:32-p271:32:32-p272:64:64-i64:64-i128:128-f80:128-n8:16:32:64-S128"
target triple = "x86_64-pc-linux-gnu"

%"class.smt::eq_justification" = type { ptr }
%class.ptr_vector.163 = type { %class.vector.164 }
%class.vector.164 = type { ptr }
%"class.smt::enode" = type { ptr, ptr, ptr, ptr, i32, i32, i32, i16, i32, i8, i8, %class.ptr_vector.163, %class.id_var_list, %"struct.smt::trans_justification", %class.approx_set, %class.approx_set, [0 x ptr] }
%class.id_var_list = type { i32, ptr }
%"struct.smt::trans_justification" = type { ptr, %"class.smt::eq_justification" }
%class.approx_set = type { %class.approx_set_tpl }
%class.approx_set_tpl = type { i64 }

; Function Attrs: mustprogress uwtable
define hidden noundef i32 @_ZN3smt7context15get_closest_varEPNS_5enodeEi(ptr noundef nonnull align 8 dereferenceable(10544) %0, ptr noundef %1, i32 noundef %2) #6 align 2 {
  %4 = alloca i32, align 4
  %5 = alloca ptr, align 8
  %6 = alloca ptr, align 8
  %7 = alloca i32, align 4
  %8 = alloca i32, align 4
  %9 = alloca i32, align 4
  store ptr %0, ptr %5, align 8, !tbaa !28
  store ptr %1, ptr %6, align 8, !tbaa !932
  store i32 %2, ptr %7, align 4, !tbaa !8
  %10 = load i32, ptr %7, align 4, !tbaa !8
  %11 = icmp eq i32 %10, -1
  br i1 %11, label %12, label %13

12:                                               ; preds = %3
  store i32 -1, ptr %4, align 4
  br label %34

13:                                               ; preds = %3
  br label %14

14:                                               ; preds = %32, %13
  %15 = load ptr, ptr %6, align 8, !tbaa !932
  %16 = icmp ne ptr %15, null
  br i1 %16, label %17, label %33

17:                                               ; preds = %14
  call void @llvm.lifetime.start.p0(i64 4, ptr %8) #3
  %18 = load ptr, ptr %6, align 8, !tbaa !932
  %19 = load i32, ptr %7, align 4, !tbaa !8
  %20 = call noundef i32 @_ZNK3smt5enode10get_th_varEi(ptr noundef nonnull align 8 dereferenceable(112) %18, i32 noundef %19)
  store i32 %20, ptr %8, align 4, !tbaa !8
  %21 = load i32, ptr %8, align 4, !tbaa !8
  %22 = icmp ne i32 %21, -1
  br i1 %22, label %23, label %25

23:                                               ; preds = %17
  %24 = load i32, ptr %8, align 4, !tbaa !8
  store i32 %24, ptr %4, align 4
  store i32 1, ptr %9, align 4
  br label %30

25:                                               ; preds = %17
  %26 = load ptr, ptr %6, align 8, !tbaa !932
  %27 = getelementptr inbounds nuw %"class.smt::enode", ptr %26, i32 0, i32 13
  %28 = getelementptr inbounds nuw %"struct.smt::trans_justification", ptr %27, i32 0, i32 0
  %29 = load ptr, ptr %28, align 8, !tbaa !934
  store ptr %29, ptr %6, align 8, !tbaa !932
  store i32 0, ptr %9, align 4
  br label %30

30:                                               ; preds = %25, %23
  call void @llvm.lifetime.end.p0(i64 4, ptr %8) #3
  %31 = load i32, ptr %9, align 4
  switch i32 %31, label %36 [
    i32 0, label %32
    i32 1, label %34
  ]

32:                                               ; preds = %30
  br label %14, !llvm.loop !1002

33:                                               ; preds = %14
  store i32 -1, ptr %4, align 4
  br label %34

34:                                               ; preds = %33, %30, %12
  %35 = load i32, ptr %4, align 4
  ret i32 %35

36:                                               ; preds = %30
  unreachable
}