; Function Attrs: mustprogress uwtable
define hidden noundef i32 @_ZN3smt7context15get_closest_varEPNS_5enodeEi(ptr noundef nonnull readnone align 8 captures(none) dereferenceable(10544) %0, ptr noundef %1, i32 noundef %2) local_unnamed_addr #4 align 2 {
  %4 = icmp eq i32 %2, -1
  %.not16 = icmp eq ptr %1, null
  %or.cond = or i1 %4, %.not16
  br i1 %or.cond, label %.thread, label %.lr.ph

.lr.ph:                                           ; preds = %3, %6
  %.0917 = phi ptr [ %8, %6 ], [ %1, %3 ]
  %5 = tail call noundef i32 @_ZNK3smt5enode10get_th_varEi(ptr noundef nonnull align 8 dereferenceable(112) %.0917, i32 noundef %2)
  %.not12.not = icmp eq i32 %5, -1
  br i1 %.not12.not, label %6, label %.thread

6:                                                ; preds = %.lr.ph
  %7 = getelementptr inbounds nuw i8, ptr %.0917, i64 80
  %8 = load ptr, ptr %7, align 8, !tbaa !876
  %.not = icmp eq ptr %8, null
  br i1 %.not, label %.thread, label %.lr.ph

.thread:                                          ; preds = %6, %.lr.ph, %3
  %.08 = phi i32 [ -1, %3 ], [ -1, %6 ], [ %5, %.lr.ph ]
  ret i32 %.08
}